target datalayout = "e-m:e-p270:32:32-p271:32:32-p272:64:64-i64:64-i128:128-f80:128-n8:16:32:64-S128"
target triple = "x86_64-pc-linux-gnu"

%"struct.gmx::EnumerationArray" = type { [5 x ptr] }
%struct.t_atom = type { float, float, float, float, i16, i16, i32, i32, i32, [4 x i8] }

@_ZZ17enumValueToString12ParticleTypeE17particleTypeNames = internal constant %"struct.gmx::EnumerationArray" { [5 x ptr] [ptr @.str, ptr @.str.1, ptr @.str.2, ptr @.str.3, ptr @.str.4] }, align 8
@.str.38 = private unnamed_addr constant [10 x i8] c"atom.type\00", align 1
@.str.39 = private unnamed_addr constant [11 x i8] c"atom.ptype\00", align 1
@.str.40 = private unnamed_addr constant [12 x i8] c"atom.resind\00", align 1
@.str.41 = private unnamed_addr constant [16 x i8] c"atom.atomnumber\00", align 1
@.str.42 = private unnamed_addr constant [7 x i8] c"atom.m\00", align 1
@.str.43 = private unnamed_addr constant [7 x i8] c"atom.q\00", align 1
@.str.44 = private unnamed_addr constant [11 x i8] c"atom.typeB\00", align 1
@.str.45 = private unnamed_addr constant [8 x i8] c"atom.mB\00", align 1
@.str.46 = private unnamed_addr constant [8 x i8] c"atom.qB\00", align 1
@.str.47 = private unnamed_addr constant [5 x i8] c"elem\00", align 1
@.str.48 = private unnamed_addr constant [5 x i8] c"%s (\00", align 1
@.str.49 = private unnamed_addr constant [3 x i8] c"%s\00", align 1
@.str.50 = private unnamed_addr constant [4 x i8] c" - \00", align 1
@.str.51 = private unnamed_addr constant [3 x i8] c")\0A\00", align 1

; Function Attrs: mustprogress nounwind uwtable
define linkonce_odr noundef nonnull align 8 dereferenceable(8) ptr @_ZNK3gmx16EnumerationArrayI12ParticleTypePKcLS1_5EEixES1_(ptr noundef nonnull align 8 dereferenceable(40) %0, i32 noundef %1) #1 comdat align 2 {
  %3 = alloca ptr, align 8
  %4 = alloca i32, align 4
  store ptr %0, ptr %3, align 8, !tbaa !11
  store i32 %1, ptr %4, align 4, !tbaa !4
  %5 = load ptr, ptr %3, align 8
  %6 = getelementptr inbounds nuw %"struct.gmx::EnumerationArray", ptr %5, i32 0, i32 0
  %7 = load i32, ptr %4, align 4, !tbaa !4
  %8 = sext i32 %7 to i64
  %9 = getelementptr inbounds nuw [5 x ptr], ptr %6, i64 0, i64 %8
  ret ptr %9
}

; Function Attrs: mustprogress uwtable
define noundef ptr @_Z17enumValueToString12ParticleType(i32 noundef %0) #0 {
  %2 = alloca i32, align 4
  store i32 %0, ptr %2, align 4, !tbaa !4
  %3 = load i32, ptr %2, align 4, !tbaa !4
  %4 = call noundef nonnull align 8 dereferenceable(8) ptr @_ZNK3gmx16EnumerationArrayI12ParticleTypePKcLS1_5EEixES1_(ptr noundef nonnull align 8 dereferenceable(40) @_ZZ17enumValueToString12ParticleTypeE17particleTypeNames, i32 noundef %3)
  %5 = load ptr, ptr %4, align 8, !tbaa !8
  ret ptr %5
}

; Function Attrs: mustprogress uwtable
define linkonce_odr void @_Z7cmpEnumI12ParticleTypeEvP8_IO_FILEPKcT_S5_(ptr noundef %0, ptr noundef %1, i32 noundef %2, i32 noundef %3) #0 comdat {
  %5 = alloca ptr, align 8
  %6 = alloca ptr, align 8
  %7 = alloca i32, align 4
  %8 = alloca i32, align 4
  store ptr %0, ptr %5, align 8, !tbaa !172
  store ptr %1, ptr %6, align 8, !tbaa !8
  store i32 %2, ptr %7, align 4, !tbaa !4
  store i32 %3, ptr %8, align 4, !tbaa !4
  %9 = load i32, ptr %7, align 4, !tbaa !4
  %10 = load i32, ptr %8, align 4, !tbaa !4
  %11 = icmp ne i32 %9, %10
  br i1 %11, label %12, label %28

12:                                               ; preds = %4
  %13 = load ptr, ptr %5, align 8, !tbaa !172
  %14 = load ptr, ptr %6, align 8, !tbaa !8
  %15 = call i32 (ptr, ptr, ...) @fprintf(ptr noundef %13, ptr noundef @.str.48, ptr noundef %14) #13
  %16 = load ptr, ptr %5, align 8, !tbaa !172
  %17 = load i32, ptr %7, align 4, !tbaa !4
  %18 = call noundef ptr @_Z17enumValueToString12ParticleType(i32 noundef %17)
  %19 = call i32 (ptr, ptr, ...) @fprintf(ptr noundef %16, ptr noundef @.str.49, ptr noundef %18) #13
  %20 = load ptr, ptr %5, align 8, !tbaa !172
  %21 = call i32 (ptr, ptr, ...) @fprintf(ptr noundef %20, ptr noundef @.str.50) #13
  %22 = load ptr, ptr %5, align 8, !tbaa !172
  %23 = load i32, ptr %8, align 4, !tbaa !4
  %24 = call noundef ptr @_Z17enumValueToString12ParticleType(i32 noundef %23)
  %25 = call i32 (ptr, ptr, ...) @fprintf(ptr noundef %22, ptr noundef @.str.49, ptr noundef %24) #13
  %26 = load ptr, ptr %5, align 8, !tbaa !172
  %27 = call i32 (ptr, ptr, ...) @fprintf(ptr noundef %26, ptr noundef @.str.51) #13
  br label %28

28:                                               ; preds = %12, %4
  ret void
}

; Function Attrs: mustprogress uwtable
define internal void @_ZL11compareAtomP8_IO_FILEiPK6t_atomS3_ff(ptr noundef %0, i32 noundef %1, ptr noundef %2, ptr noundef %3, float noundef %4, float noundef %5) #0 {
  %7 = alloca ptr, align 8
  %8 = alloca i32, align 4
  %9 = alloca ptr, align 8
  %10 = alloca ptr, align 8
  %11 = alloca float, align 4
  %12 = alloca float, align 4
  store ptr %0, ptr %7, align 8, !tbaa !172
  store i32 %1, ptr %8, align 4, !tbaa !60
  store ptr %2, ptr %9, align 8, !tbaa !115
  store ptr %3, ptr %10, align 8, !tbaa !115
  store float %4, ptr %11, align 4, !tbaa !151
  store float %5, ptr %12, align 4, !tbaa !151
  %13 = load ptr, ptr %10, align 8, !tbaa !115
  %14 = icmp ne ptr %13, null
  br i1 %14, label %15, label %103

15:                                               ; preds = %6
  %16 = load ptr, ptr %7, align 8, !tbaa !172
  %17 = load i32, ptr %8, align 4, !tbaa !60
  %18 = load ptr, ptr %9, align 8, !tbaa !115
  %19 = getelementptr inbounds nuw %struct.t_atom, ptr %18, i32 0, i32 4
  %20 = load i16, ptr %19, align 4, !tbaa !174
  %21 = load ptr, ptr %10, align 8, !tbaa !115
  %22 = getelementptr inbounds nuw %struct.t_atom, ptr %21, i32 0, i32 4
  %23 = load i16, ptr %22, align 4, !tbaa !174
  call void @_Z6cmp_usP8_IO_FILEPKcitt(ptr noundef %16, ptr noundef @.str.38, i32 noundef %17, i16 noundef zeroext %20, i16 noundef zeroext %23)
  %24 = load ptr, ptr %7, align 8, !tbaa !172
  %25 = load ptr, ptr %9, align 8, !tbaa !115
  %26 = getelementptr inbounds nuw %struct.t_atom, ptr %25, i32 0, i32 6
  %27 = load i32, ptr %26, align 4, !tbaa !176
  %28 = load ptr, ptr %10, align 8, !tbaa !115
  %29 = getelementptr inbounds nuw %struct.t_atom, ptr %28, i32 0, i32 6
  %30 = load i32, ptr %29, align 4, !tbaa !176
  call void @_Z7cmpEnumI12ParticleTypeEvP8_IO_FILEPKcT_S5_(ptr noundef %24, ptr noundef @.str.39, i32 noundef %27, i32 noundef %30)
  %31 = load ptr, ptr %7, align 8, !tbaa !172
  %32 = load i32, ptr %8, align 4, !tbaa !60
  %33 = load ptr, ptr %9, align 8, !tbaa !115
  %34 = getelementptr inbounds nuw %struct.t_atom, ptr %33, i32 0, i32 7
  %35 = load i32, ptr %34, align 4, !tbaa !163
  %36 = load ptr, ptr %10, align 8, !tbaa !115
  %37 = getelementptr inbounds nuw %struct.t_atom, ptr %36, i32 0, i32 7
  %38 = load i32, ptr %37, align 4, !tbaa !163
  call void @_Z7cmp_intP8_IO_FILEPKciii(ptr noundef %31, ptr noundef @.str.40, i32 noundef %32, i32 noundef %35, i32 noundef %38)
  %39 = load ptr, ptr %7, align 8, !tbaa !172
  %40 = load i32, ptr %8, align 4, !tbaa !60
  %41 = load ptr, ptr %9, align 8, !tbaa !115
  %42 = getelementptr inbounds nuw %struct.t_atom, ptr %41, i32 0, i32 8
  %43 = load i32, ptr %42, align 4, !tbaa !181
  %44 = load ptr, ptr %10, align 8, !tbaa !115
  %45 = getelementptr inbounds nuw %struct.t_atom, ptr %44, i32 0, i32 8
  %46 = load i32, ptr %45, align 4, !tbaa !181
  call void @_Z7cmp_intP8_IO_FILEPKciii(ptr noundef %39, ptr noundef @.str.41, i32 noundef %40, i32 noundef %43, i32 noundef %46)
  %47 = load ptr, ptr %7, align 8, !tbaa !172
  %48 = load i32, ptr %8, align 4, !tbaa !60
  %49 = load ptr, ptr %9, align 8, !tbaa !115
  %50 = getelementptr inbounds nuw %struct.t_atom, ptr %49, i32 0, i32 0
  %51 = load float, ptr %50, align 4, !tbaa !177
  %52 = load ptr, ptr %10, align 8, !tbaa !115
  %53 = getelementptr inbounds nuw %struct.t_atom, ptr %52, i32 0, i32 0
  %54 = load float, ptr %53, align 4, !tbaa !177
  %55 = load float, ptr %11, align 4, !tbaa !151
  %56 = load float, ptr %12, align 4, !tbaa !151
  call void @_Z8cmp_realP8_IO_FILEPKciffff(ptr noundef %47, ptr noundef @.str.42, i32 noundef %48, float noundef %51, float noundef %54, float noundef %55, float noundef %56)
  %57 = load ptr, ptr %7, align 8, !tbaa !172
  %58 = load i32, ptr %8, align 4, !tbaa !60
  %59 = load ptr, ptr %9, align 8, !tbaa !115
  %60 = getelementptr inbounds nuw %struct.t_atom, ptr %59, i32 0, i32 1
  %61 = load float, ptr %60, align 4, !tbaa !178
  %62 = load ptr, ptr %10, align 8, !tbaa !115
  %63 = getelementptr inbounds nuw %struct.t_atom, ptr %62, i32 0, i32 1
  %64 = load float, ptr %63, align 4, !tbaa !178
  %65 = load float, ptr %11, align 4, !tbaa !151
  %66 = load float, ptr %12, align 4, !tbaa !151
  call void @_Z8cmp_realP8_IO_FILEPKciffff(ptr noundef %57, ptr noundef @.str.43, i32 noundef %58, float noundef %61, float noundef %64, float noundef %65, float noundef %66)
  %67 = load ptr, ptr %7, align 8, !tbaa !172
  %68 = load i32, ptr %8, align 4, !tbaa !60
  %69 = load ptr, ptr %9, align 8, !tbaa !115
  %70 = getelementptr inbounds nuw %struct.t_atom, ptr %69, i32 0, i32 5
  %71 = load i16, ptr %70, align 2, !tbaa !175
  %72 = load ptr, ptr %10, align 8, !tbaa !115
  %73 = getelementptr inbounds nuw %struct.t_atom, ptr %72, i32 0, i32 5
  %74 = load i16, ptr %73, align 2, !tbaa !175
  call void @_Z6cmp_usP8_IO_FILEPKcitt(ptr noundef %67, ptr noundef @.str.44, i32 noundef %68, i16 noundef zeroext %71, i16 noundef zeroext %74)
  %75 = load ptr, ptr %7, align 8, !tbaa !172
  %76 = load i32, ptr %8, align 4, !tbaa !60
  %77 = load ptr, ptr %9, align 8, !tbaa !115
  %78 = getelementptr inbounds nuw %struct.t_atom, ptr %77, i32 0, i32 2
  %79 = load float, ptr %78, align 4, !tbaa !179
  %80 = load ptr, ptr %10, align 8, !tbaa !115
  %81 = getelementptr inbounds nuw %struct.t_atom, ptr %80, i32 0, i32 2
  %82 = load float, ptr %81, align 4, !tbaa !179
  %83 = load float, ptr %11, align 4, !tbaa !151
  %84 = load float, ptr %12, align 4, !tbaa !151
  call void @_Z8cmp_realP8_IO_FILEPKciffff(ptr noundef %75, ptr noundef @.str.45, i32 noundef %76, float noundef %79, float noundef %82, float noundef %83, float noundef %84)
  %85 = load ptr, ptr %7, align 8, !tbaa !172
  %86 = load i32, ptr %8, align 4, !tbaa !60
  %87 = load ptr, ptr %9, align 8, !tbaa !115
  %88 = getelementptr inbounds nuw %struct.t_atom, ptr %87, i32 0, i32 3
  %89 = load float, ptr %88, align 4, !tbaa !180
  %90 = load ptr, ptr %10, align 8, !tbaa !115
  %91 = getelementptr inbounds nuw %struct.t_atom, ptr %90, i32 0, i32 3
  %92 = load float, ptr %91, align 4, !tbaa !180
  %93 = load float, ptr %11, align 4, !tbaa !151
  %94 = load float, ptr %12, align 4, !tbaa !151
  call void @_Z8cmp_realP8_IO_FILEPKciffff(ptr noundef %85, ptr noundef @.str.46, i32 noundef %86, float noundef %89, float noundef %92, float noundef %93, float noundef %94)
  %95 = load ptr, ptr %7, align 8, !tbaa !172
  %96 = load i32, ptr %8, align 4, !tbaa !60
  %97 = load ptr, ptr %9, align 8, !tbaa !115
  %98 = getelementptr inbounds nuw %struct.t_atom, ptr %97, i32 0, i32 9
  %99 = getelementptr inbounds [4 x i8], ptr %98, i64 0, i64 0
  %100 = load ptr, ptr %10, align 8, !tbaa !115
  %101 = getelementptr inbounds nuw %struct.t_atom, ptr %100, i32 0, i32 9
  %102 = getelementptr inbounds [4 x i8], ptr %101, i64 0, i64 0
  call void @_Z7cmp_strP8_IO_FILEPKciS2_S2_(ptr noundef %95, ptr noundef @.str.47, i32 noundef %96, ptr noundef %99, ptr noundef %102)
  br label %132

103:                                              ; preds = %6
  %104 = load ptr, ptr %7, align 8, !tbaa !172
  %105 = load i32, ptr %8, align 4, !tbaa !60
  %106 = load ptr, ptr %9, align 8, !tbaa !115
  %107 = getelementptr inbounds nuw %struct.t_atom, ptr %106, i32 0, i32 4
  %108 = load i16, ptr %107, align 4, !tbaa !174
  %109 = load ptr, ptr %9, align 8, !tbaa !115
  %110 = getelementptr inbounds nuw %struct.t_atom, ptr %109, i32 0, i32 5
  %111 = load i16, ptr %110, align 2, !tbaa !175
  call void @_Z6cmp_usP8_IO_FILEPKcitt(ptr noundef %104, ptr noundef @.str.38, i32 noundef %105, i16 noundef zeroext %108, i16 noundef zeroext %111)
  %112 = load ptr, ptr %7, align 8, !tbaa !172
  %113 = load i32, ptr %8, align 4, !tbaa !60
  %114 = load ptr, ptr %9, align 8, !tbaa !115
  %115 = getelementptr inbounds nuw %struct.t_atom, ptr %114, i32 0, i32 0
  %116 = load float, ptr %115, align 4, !tbaa !177
  %117 = load ptr, ptr %9, align 8, !tbaa !115
  %118 = getelementptr inbounds nuw %struct.t_atom, ptr %117, i32 0, i32 2
  %119 = load float, ptr %118, align 4, !tbaa !179
  %120 = load float, ptr %11, align 4, !tbaa !151
  %121 = load float, ptr %12, align 4, !tbaa !151
  call void @_Z8cmp_realP8_IO_FILEPKciffff(ptr noundef %112, ptr noundef @.str.42, i32 noundef %113, float noundef %116, float noundef %119, float noundef %120, float noundef %121)
  %122 = load ptr, ptr %7, align 8, !tbaa !172
  %123 = load i32, ptr %8, align 4, !tbaa !60
  %124 = load ptr, ptr %9, align 8, !tbaa !115
  %125 = getelementptr inbounds nuw %struct.t_atom, ptr %124, i32 0, i32 1
  %126 = load float, ptr %125, align 4, !tbaa !178
  %127 = load ptr, ptr %9, align 8, !tbaa !115
  %128 = getelementptr inbounds nuw %struct.t_atom, ptr %127, i32 0, i32 3
  %129 = load float, ptr %128, align 4, !tbaa !180
  %130 = load float, ptr %11, align 4, !tbaa !151
  %131 = load float, ptr %12, align 4, !tbaa !151
  call void @_Z8cmp_realP8_IO_FILEPKciffff(ptr noundef %122, ptr noundef @.str.43, i32 noundef %123, float noundef %126, float noundef %129, float noundef %130, float noundef %131)
  br label %132

132:                                              ; preds = %103, %15
  ret void
}