; Function Attrs: mustprogress uwtable
define internal fastcc void @_ZL11compareAtomP8_IO_FILEiPK6t_atomS3_ff(ptr noundef %0, i32 noundef %1, ptr noundef %2, ptr noundef %3, float noundef %4, float noundef %5) unnamed_addr #1 {
  %.not = icmp eq ptr %3, null
  %7 = getelementptr inbounds nuw i8, ptr %2, i64 16
  %8 = load i16, ptr %7, align 4, !tbaa !101
  br i1 %.not, label %54, label %9

9:                                                ; preds = %6
  %10 = getelementptr inbounds nuw i8, ptr %3, i64 16
  %11 = load i16, ptr %10, align 4, !tbaa !101
  tail call void @_Z6cmp_usP8_IO_FILEPKcitt(ptr noundef %0, ptr noundef nonnull @.str.38, i32 noundef %1, i16 noundef zeroext %8, i16 noundef zeroext %11)
  %12 = getelementptr inbounds nuw i8, ptr %2, i64 20
  %13 = load i32, ptr %12, align 4, !tbaa !103
  %14 = getelementptr inbounds nuw i8, ptr %3, i64 20
  %15 = load i32, ptr %14, align 4, !tbaa !103
  %.not.i = icmp eq i32 %13, %15
  br i1 %.not.i, label %_Z7cmpEnumI12ParticleTypeEvP8_IO_FILEPKcT_S5_.exit, label %16

16:                                               ; preds = %9
  %17 = tail call i32 (ptr, ptr, ...) @fprintf(ptr noundef %0, ptr noundef nonnull @.str.48, ptr noundef nonnull @.str.39) #15
  %18 = sext i32 %13 to i64
  %19 = getelementptr inbounds nuw [5 x ptr], ptr @_ZZ17enumValueToString12ParticleTypeE17particleTypeNames, i64 0, i64 %18
  %20 = load ptr, ptr %19, align 8, !tbaa !4
  %fputs.i = tail call i32 @fputs(ptr %20, ptr %0)
  %21 = tail call i64 @fwrite(ptr nonnull @.str.50, i64 3, i64 1, ptr %0)
  %22 = sext i32 %15 to i64
  %23 = getelementptr inbounds nuw [5 x ptr], ptr @_ZZ17enumValueToString12ParticleTypeE17particleTypeNames, i64 0, i64 %22
  %24 = load ptr, ptr %23, align 8, !tbaa !4
  %fputs10.i = tail call i32 @fputs(ptr %24, ptr %0)
  %25 = tail call i64 @fwrite(ptr nonnull @.str.51, i64 2, i64 1, ptr %0)
  br label %_Z7cmpEnumI12ParticleTypeEvP8_IO_FILEPKcT_S5_.exit

_Z7cmpEnumI12ParticleTypeEvP8_IO_FILEPKcT_S5_.exit: ; preds = %9, %16
  %26 = getelementptr inbounds nuw i8, ptr %2, i64 24
  %27 = load i32, ptr %26, align 4, !tbaa !92
  %28 = getelementptr inbounds nuw i8, ptr %3, i64 24
  %29 = load i32, ptr %28, align 4, !tbaa !92
  tail call void @_Z7cmp_intP8_IO_FILEPKciii(ptr noundef %0, ptr noundef nonnull @.str.40, i32 noundef %1, i32 noundef %27, i32 noundef %29)
  %30 = getelementptr inbounds nuw i8, ptr %2, i64 28
  %31 = load i32, ptr %30, align 4, !tbaa !108
  %32 = getelementptr inbounds nuw i8, ptr %3, i64 28
  %33 = load i32, ptr %32, align 4, !tbaa !108
  tail call void @_Z7cmp_intP8_IO_FILEPKciii(ptr noundef %0, ptr noundef nonnull @.str.41, i32 noundef %1, i32 noundef %31, i32 noundef %33)
  %34 = load float, ptr %2, align 4, !tbaa !104
  %35 = load float, ptr %3, align 4, !tbaa !104
  tail call void @_Z8cmp_realP8_IO_FILEPKciffff(ptr noundef %0, ptr noundef nonnull @.str.42, i32 noundef %1, float noundef %34, float noundef %35, float noundef %4, float noundef %5)
  %36 = getelementptr inbounds nuw i8, ptr %2, i64 4
  %37 = load float, ptr %36, align 4, !tbaa !105
  %38 = getelementptr inbounds nuw i8, ptr %3, i64 4
  %39 = load float, ptr %38, align 4, !tbaa !105
  tail call void @_Z8cmp_realP8_IO_FILEPKciffff(ptr noundef %0, ptr noundef nonnull @.str.43, i32 noundef %1, float noundef %37, float noundef %39, float noundef %4, float noundef %5)
  %40 = getelementptr inbounds nuw i8, ptr %2, i64 18
  %41 = load i16, ptr %40, align 2, !tbaa !102
  %42 = getelementptr inbounds nuw i8, ptr %3, i64 18
  %43 = load i16, ptr %42, align 2, !tbaa !102
  tail call void @_Z6cmp_usP8_IO_FILEPKcitt(ptr noundef %0, ptr noundef nonnull @.str.44, i32 noundef %1, i16 noundef zeroext %41, i16 noundef zeroext %43)
  %44 = getelementptr inbounds nuw i8, ptr %2, i64 8
  %45 = load float, ptr %44, align 4, !tbaa !106
  %46 = getelementptr inbounds nuw i8, ptr %3, i64 8
  %47 = load float, ptr %46, align 4, !tbaa !106
  tail call void @_Z8cmp_realP8_IO_FILEPKciffff(ptr noundef %0, ptr noundef nonnull @.str.45, i32 noundef %1, float noundef %45, float noundef %47, float noundef %4, float noundef %5)
  %48 = getelementptr inbounds nuw i8, ptr %2, i64 12
  %49 = load float, ptr %48, align 4, !tbaa !107
  %50 = getelementptr inbounds nuw i8, ptr %3, i64 12
  %51 = load float, ptr %50, align 4, !tbaa !107
  tail call void @_Z8cmp_realP8_IO_FILEPKciffff(ptr noundef %0, ptr noundef nonnull @.str.46, i32 noundef %1, float noundef %49, float noundef %51, float noundef %4, float noundef %5)
  %52 = getelementptr inbounds nuw i8, ptr %2, i64 32
  %53 = getelementptr inbounds nuw i8, ptr %3, i64 32
  tail call void @_Z7cmp_strP8_IO_FILEPKciS2_S2_(ptr noundef %0, ptr noundef nonnull @.str.47, i32 noundef %1, ptr noundef nonnull %52, ptr noundef nonnull %53)
  br label %64

54:                                               ; preds = %6
  %55 = getelementptr inbounds nuw i8, ptr %2, i64 18
  %56 = load i16, ptr %55, align 2, !tbaa !102
  tail call void @_Z6cmp_usP8_IO_FILEPKcitt(ptr noundef %0, ptr noundef nonnull @.str.38, i32 noundef %1, i16 noundef zeroext %8, i16 noundef zeroext %56)
  %57 = load float, ptr %2, align 4, !tbaa !104
  %58 = getelementptr inbounds nuw i8, ptr %2, i64 8
  %59 = load float, ptr %58, align 4, !tbaa !106
  tail call void @_Z8cmp_realP8_IO_FILEPKciffff(ptr noundef %0, ptr noundef nonnull @.str.42, i32 noundef %1, float noundef %57, float noundef %59, float noundef %4, float noundef %5)
  %60 = getelementptr inbounds nuw i8, ptr %2, i64 4
  %61 = load float, ptr %60, align 4, !tbaa !105
  %62 = getelementptr inbounds nuw i8, ptr %2, i64 12
  %63 = load float, ptr %62, align 4, !tbaa !107
  tail call void @_Z8cmp_realP8_IO_FILEPKciffff(ptr noundef %0, ptr noundef nonnull @.str.43, i32 noundef %1, float noundef %61, float noundef %63, float noundef %4, float noundef %5)
  br label %64

64:                                               ; preds = %54, %_Z7cmpEnumI12ParticleTypeEvP8_IO_FILEPKcT_S5_.exit
  ret void
}